; ModuleID = '36/207.c'
source_filename = "36/207.c"
target datalayout = "e-m:e-p270:32:32-p271:32:32-p272:64:64-i64:64-f80:128-n8:16:32:64-S128"
target triple = "x86_64-pc-linux-gnu"

@.str = private unnamed_addr constant [5 x i8] c"%s%s\00", align 1
@.str.1 = private unnamed_addr constant [4 x i8] c"YES\00", align 1
@.str.2 = private unnamed_addr constant [3 x i8] c"NO\00", align 1

; Function Attrs: noinline nounwind uwtable
define dso_local void @sort(i8* %0) #0 {
  %2 = alloca i8*, align 8
  %3 = alloca i32, align 4
  %4 = alloca i32, align 4
  %5 = alloca i8, align 1
  store i8* %0, i8** %2, align 8
  store i32 0, i32* %3, align 4
  br label %6

6:                                                ; preds = %66, %1
  %7 = load i32, i32* %3, align 4
  %8 = sext i32 %7 to i64
  %9 = load i8*, i8** %2, align 8
  %10 = call i64 @strlen(i8* %9) #3
  %11 = sub i64 %10, 2
  %12 = icmp ule i64 %8, %11
  br i1 %12, label %13, label %69

13:                                               ; preds = %6
  store i32 0, i32* %4, align 4
  br label %14

14:                                               ; preds = %62, %13
  %15 = load i32, i32* %4, align 4
  %16 = sext i32 %15 to i64
  %17 = load i8*, i8** %2, align 8
  %18 = call i64 @strlen(i8* %17) #3
  %19 = sub i64 %18, 2
  %20 = load i32, i32* %3, align 4
  %21 = sext i32 %20 to i64
  %22 = sub i64 %19, %21
  %23 = icmp ule i64 %16, %22
  br i1 %23, label %24, label %65

24:                                               ; preds = %14
  %25 = load i8*, i8** %2, align 8
  %26 = load i32, i32* %4, align 4
  %27 = sext i32 %26 to i64
  %28 = getelementptr inbounds i8, i8* %25, i64 %27
  %29 = load i8, i8* %28, align 1
  %30 = sext i8 %29 to i32
  %31 = load i8*, i8** %2, align 8
  %32 = load i32, i32* %4, align 4
  %33 = add nsw i32 %32, 1
  %34 = sext i32 %33 to i64
  %35 = getelementptr inbounds i8, i8* %31, i64 %34
  %36 = load i8, i8* %35, align 1
  %37 = sext i8 %36 to i32
  %38 = icmp sgt i32 %30, %37
  br i1 %38, label %39, label %61

39:                                               ; preds = %24
  %40 = load i8*, i8** %2, align 8
  %41 = load i32, i32* %4, align 4
  %42 = sext i32 %41 to i64
  %43 = getelementptr inbounds i8, i8* %40, i64 %42
  %44 = load i8, i8* %43, align 1
  store i8 %44, i8* %5, align 1
  %45 = load i8*, i8** %2, align 8
  %46 = load i32, i32* %4, align 4
  %47 = add nsw i32 %46, 1
  %48 = sext i32 %47 to i64
  %49 = getelementptr inbounds i8, i8* %45, i64 %48
  %50 = load i8, i8* %49, align 1
  %51 = load i8*, i8** %2, align 8
  %52 = load i32, i32* %4, align 4
  %53 = sext i32 %52 to i64
  %54 = getelementptr inbounds i8, i8* %51, i64 %53
  store i8 %50, i8* %54, align 1
  %55 = load i8, i8* %5, align 1
  %56 = load i8*, i8** %2, align 8
  %57 = load i32, i32* %4, align 4
  %58 = add nsw i32 %57, 1
  %59 = sext i32 %58 to i64
  %60 = getelementptr inbounds i8, i8* %56, i64 %59
  store i8 %55, i8* %60, align 1
  br label %61

61:                                               ; preds = %39, %24
  br label %62

62:                                               ; preds = %61
  %63 = load i32, i32* %4, align 4
  %64 = add nsw i32 %63, 1
  store i32 %64, i32* %4, align 4
  br label %14

65:                                               ; preds = %14
  br label %66

66:                                               ; preds = %65
  %67 = load i32, i32* %3, align 4
  %68 = add nsw i32 %67, 1
  store i32 %68, i32* %3, align 4
  br label %6

69:                                               ; preds = %6
  ret void
}

; Function Attrs: nounwind readonly
declare dso_local i64 @strlen(i8*) #1

; Function Attrs: noinline nounwind uwtable
define dso_local void @main() #0 {
  %1 = alloca [50 x i8], align 16
  %2 = alloca [50 x i8], align 16
  %3 = alloca i32, align 4
  %4 = alloca i32, align 4
  %5 = call i32 (i8*, ...) @__isoc99_scanf(i8* getelementptr inbounds ([5 x i8], [5 x i8]* @.str, i64 0, i64 0), [50 x i8]* %1, [50 x i8]* %2)
  %6 = getelementptr inbounds [50 x i8], [50 x i8]* %1, i64 0, i64 0
  call void @sort(i8* %6)
  %7 = getelementptr inbounds [50 x i8], [50 x i8]* %2, i64 0, i64 0
  call void @sort(i8* %7)
  store i32 1, i32* %3, align 4
  store i32 0, i32* %4, align 4
  br label %8

8:                                                ; preds = %28, %0
  %9 = load i32, i32* %4, align 4
  %10 = sext i32 %9 to i64
  %11 = getelementptr inbounds [50 x i8], [50 x i8]* %1, i64 0, i64 0
  %12 = call i64 @strlen(i8* %11) #3
  %13 = icmp ule i64 %10, %12
  br i1 %13, label %14, label %31

14:                                               ; preds = %8
  %15 = load i32, i32* %4, align 4
  %16 = sext i32 %15 to i64
  %17 = getelementptr inbounds [50 x i8], [50 x i8]* %1, i64 0, i64 %16
  %18 = load i8, i8* %17, align 1
  %19 = sext i8 %18 to i32
  %20 = load i32, i32* %4, align 4
  %21 = sext i32 %20 to i64
  %22 = getelementptr inbounds [50 x i8], [50 x i8]* %2, i64 0, i64 %21
  %23 = load i8, i8* %22, align 1
  %24 = sext i8 %23 to i32
  %25 = icmp ne i32 %19, %24
  br i1 %25, label %26, label %27

26:                                               ; preds = %14
  store i32 0, i32* %3, align 4
  br label %31

27:                                               ; preds = %14
  br label %28

28:                                               ; preds = %27
  %29 = load i32, i32* %4, align 4
  %30 = add nsw i32 %29, 1
  store i32 %30, i32* %4, align 4
  br label %8

31:                                               ; preds = %26, %8
  %32 = load i32, i32* %3, align 4
  %33 = icmp ne i32 %32, 0
  br i1 %33, label %34, label %36

34:                                               ; preds = %31
  %35 = call i32 (i8*, ...) @printf(i8* getelementptr inbounds ([4 x i8], [4 x i8]* @.str.1, i64 0, i64 0))
  br label %38

36:                                               ; preds = %31
  %37 = call i32 (i8*, ...) @printf(i8* getelementptr inbounds ([3 x i8], [3 x i8]* @.str.2, i64 0, i64 0))
  br label %38

38:                                               ; preds = %36, %34
  ret void
}

declare dso_local i32 @__isoc99_scanf(i8*, ...) #2

declare dso_local i32 @printf(i8*, ...) #2


!llvm.module.flags = !{!0}
!llvm.ident = !{!1}

!0 = !{i32 1, !"wchar_size", i32 4}
!1 = !{!"clang version 10.0.0-4ubuntu1 "}
